target datalayout = "e-m:e-p270:32:32-p271:32:32-p272:64:64-i64:64-i128:128-f80:128-n8:16:32:64-S128"
target triple = "x86_64-pc-linux-gnu"

%struct.evp_pkey_st = type { i32, i32, ptr, ptr, ptr, %union.legacy_pkey_st, %union.legacy_pkey_st, %struct.CRYPTO_REF_COUNT, ptr, ptr, i32, i8, %struct.crypto_ex_data_st, ptr, ptr, i64, ptr, i64, %struct.anon }
%union.legacy_pkey_st = type { ptr }
%struct.CRYPTO_REF_COUNT = type { i32 }
%struct.crypto_ex_data_st = type { ptr, ptr }
%struct.anon = type { i32, i32, i32 }
%struct.evp_pkey_asn1_method_st = type { i32, i32, i64, ptr, ptr, ptr, ptr, ptr, ptr, ptr, ptr, ptr, ptr, ptr, ptr, ptr, ptr, ptr, ptr, ptr, ptr, ptr, ptr, ptr, ptr, ptr, ptr, ptr, ptr, ptr, ptr, ptr, ptr, ptr, ptr, ptr, ptr, ptr, ptr, ptr, ptr }

@.str = private unnamed_addr constant [33 x i8] c"../openssl/crypto/pem/pem_pkey.c\00", align 1
@__func__.PEM_write_bio_PrivateKey_traditional = private unnamed_addr constant [37 x i8] c"PEM_write_bio_PrivateKey_traditional\00", align 1
@.str.3 = private unnamed_addr constant [15 x i8] c"%s PRIVATE KEY\00", align 1

; Function Attrs: nounwind uwtable
define i32 @PEM_write_bio_PrivateKey_traditional(ptr noundef %0, ptr noundef %1, ptr noundef %2, ptr noundef %3, i32 noundef %4, ptr noundef %5, ptr noundef %6) #0 {
  %8 = alloca i32, align 4
  %9 = alloca ptr, align 8
  %10 = alloca ptr, align 8
  %11 = alloca ptr, align 8
  %12 = alloca ptr, align 8
  %13 = alloca i32, align 4
  %14 = alloca ptr, align 8
  %15 = alloca ptr, align 8
  %16 = alloca [80 x i8], align 16
  %17 = alloca ptr, align 8
  %18 = alloca i32, align 4
  %19 = alloca i32, align 4
  store ptr %0, ptr %9, align 8, !tbaa !3
  store ptr %1, ptr %10, align 8, !tbaa !17
  store ptr %2, ptr %11, align 8, !tbaa !21
  store ptr %3, ptr %12, align 8, !tbaa !13
  store i32 %4, ptr %13, align 4, !tbaa !15
  store ptr %5, ptr %14, align 8, !tbaa !10
  store ptr %6, ptr %15, align 8, !tbaa !10
  call void @llvm.lifetime.start.p0(i64 80, ptr %16) #6
  call void @llvm.lifetime.start.p0(i64 8, ptr %17) #6
  store ptr null, ptr %17, align 8, !tbaa !17
  call void @llvm.lifetime.start.p0(i64 4, ptr %18) #6
  %20 = load ptr, ptr %10, align 8, !tbaa !17
  %21 = icmp eq ptr %20, null
  br i1 %21, label %22, label %23

22:                                               ; preds = %7
  store i32 0, ptr %8, align 4
  store i32 1, ptr %19, align 4
  br label %77

23:                                               ; preds = %7
  %24 = load ptr, ptr %10, align 8, !tbaa !17
  %25 = getelementptr inbounds nuw %struct.evp_pkey_st, ptr %24, i32 0, i32 5
  %26 = load ptr, ptr %25, align 8, !tbaa !39
  %27 = icmp ne ptr %26, null
  br i1 %27, label %33, label %28

28:                                               ; preds = %23
  %29 = load ptr, ptr %10, align 8, !tbaa !17
  %30 = getelementptr inbounds nuw %struct.evp_pkey_st, ptr %29, i32 0, i32 14
  %31 = load ptr, ptr %30, align 8, !tbaa !40
  %32 = icmp ne ptr %31, null
  br i1 %32, label %33, label %44

33:                                               ; preds = %28, %23
  %34 = load ptr, ptr %10, align 8, !tbaa !17
  %35 = getelementptr inbounds nuw %struct.evp_pkey_st, ptr %34, i32 0, i32 13
  %36 = load ptr, ptr %35, align 8, !tbaa !41
  %37 = icmp ne ptr %36, null
  br i1 %37, label %38, label %44

38:                                               ; preds = %33
  %39 = load ptr, ptr %10, align 8, !tbaa !17
  %40 = call i32 @evp_pkey_copy_downgraded(ptr noundef %17, ptr noundef %39)
  %41 = icmp ne i32 %40, 0
  br i1 %41, label %42, label %44

42:                                               ; preds = %38
  %43 = load ptr, ptr %17, align 8, !tbaa !17
  store ptr %43, ptr %10, align 8, !tbaa !17
  br label %44

44:                                               ; preds = %42, %38, %33, %28
  %45 = load ptr, ptr %10, align 8, !tbaa !17
  %46 = getelementptr inbounds nuw %struct.evp_pkey_st, ptr %45, i32 0, i32 2
  %47 = load ptr, ptr %46, align 8, !tbaa !25
  %48 = icmp eq ptr %47, null
  br i1 %48, label %56, label %49

49:                                               ; preds = %44
  %50 = load ptr, ptr %10, align 8, !tbaa !17
  %51 = getelementptr inbounds nuw %struct.evp_pkey_st, ptr %50, i32 0, i32 2
  %52 = load ptr, ptr %51, align 8, !tbaa !25
  %53 = getelementptr inbounds nuw %struct.evp_pkey_asn1_method_st, ptr %52, i32 0, i32 25
  %54 = load ptr, ptr %53, align 8, !tbaa !42
  %55 = icmp eq ptr %54, null
  br i1 %55, label %56, label %58

56:                                               ; preds = %49, %44
  call void @ERR_new()
  call void @ERR_set_debug(ptr noundef @.str, i32 noundef 357, ptr noundef @__func__.PEM_write_bio_PrivateKey_traditional)
  call void (i32, i32, ptr, ...) @ERR_set_error(i32 noundef 9, i32 noundef 110, ptr noundef null)
  %57 = load ptr, ptr %17, align 8, !tbaa !17
  call void @EVP_PKEY_free(ptr noundef %57)
  store i32 0, ptr %8, align 4
  store i32 1, ptr %19, align 4
  br label %77

58:                                               ; preds = %49
  %59 = getelementptr inbounds [80 x i8], ptr %16, i64 0, i64 0
  %60 = load ptr, ptr %10, align 8, !tbaa !17
  %61 = getelementptr inbounds nuw %struct.evp_pkey_st, ptr %60, i32 0, i32 2
  %62 = load ptr, ptr %61, align 8, !tbaa !25
  %63 = getelementptr inbounds nuw %struct.evp_pkey_asn1_method_st, ptr %62, i32 0, i32 3
  %64 = load ptr, ptr %63, align 8, !tbaa !43
  %65 = call i32 (ptr, i64, ptr, ...) @BIO_snprintf(ptr noundef %59, i64 noundef 80, ptr noundef @.str.3, ptr noundef %64)
  %66 = getelementptr inbounds [80 x i8], ptr %16, i64 0, i64 0
  %67 = load ptr, ptr %9, align 8, !tbaa !3
  %68 = load ptr, ptr %10, align 8, !tbaa !17
  %69 = load ptr, ptr %11, align 8, !tbaa !21
  %70 = load ptr, ptr %12, align 8, !tbaa !13
  %71 = load i32, ptr %13, align 4, !tbaa !15
  %72 = load ptr, ptr %14, align 8, !tbaa !10
  %73 = load ptr, ptr %15, align 8, !tbaa !10
  %74 = call i32 @PEM_ASN1_write_bio(ptr noundef @i2d_PrivateKey, ptr noundef %66, ptr noundef %67, ptr noundef %68, ptr noundef %69, ptr noundef %70, i32 noundef %71, ptr noundef %72, ptr noundef %73)
  store i32 %74, ptr %18, align 4, !tbaa !15
  %75 = load ptr, ptr %17, align 8, !tbaa !17
  call void @EVP_PKEY_free(ptr noundef %75)
  %76 = load i32, ptr %18, align 4, !tbaa !15
  store i32 %76, ptr %8, align 4
  store i32 1, ptr %19, align 4
  br label %77

77:                                               ; preds = %58, %56, %22
  call void @llvm.lifetime.end.p0(i64 4, ptr %18) #6
  call void @llvm.lifetime.end.p0(i64 8, ptr %17) #6
  call void @llvm.lifetime.end.p0(i64 80, ptr %16) #6
  %78 = load i32, ptr %8, align 4
  ret i32 %78
}