; Function Attrs: nounwind uwtable
define i32 @PEM_write_bio_PrivateKey_traditional(ptr noundef %0, ptr noundef %1, ptr noundef %2, ptr noundef %3, i32 noundef %4, ptr noundef %5, ptr noundef %6) local_unnamed_addr #0 {
  %8 = alloca [80 x i8], align 16
  %9 = alloca ptr, align 8
  call void @llvm.lifetime.start.p0(i64 80, ptr nonnull %8) #6
  call void @llvm.lifetime.start.p0(i64 8, ptr nonnull %9) #6
  store ptr null, ptr %9, align 8, !tbaa !3
  %10 = icmp eq ptr %1, null
  br i1 %10, label %38, label %11

11:                                               ; preds = %7
  %12 = getelementptr inbounds nuw i8, ptr %1, i64 32
  %13 = load ptr, ptr %12, align 8, !tbaa !31
  %.not = icmp eq ptr %13, null
  br i1 %.not, label %14, label %17

14:                                               ; preds = %11
  %15 = getelementptr inbounds nuw i8, ptr %1, i64 104
  %16 = load ptr, ptr %15, align 8, !tbaa !32
  %.not19 = icmp eq ptr %16, null
  br i1 %.not19, label %23, label %17

17:                                               ; preds = %14, %11
  %18 = getelementptr inbounds nuw i8, ptr %1, i64 96
  %19 = load ptr, ptr %18, align 8, !tbaa !33
  %.not20 = icmp eq ptr %19, null
  br i1 %.not20, label %23, label %20

20:                                               ; preds = %17
  %21 = call i32 @evp_pkey_copy_downgraded(ptr noundef nonnull %9, ptr noundef nonnull %1) #6
  %.not21 = icmp eq i32 %21, 0
  %22 = load ptr, ptr %9, align 8
  %spec.select = select i1 %.not21, ptr %1, ptr %22
  br label %23

23:                                               ; preds = %20, %17, %14
  %.016 = phi ptr [ %1, %17 ], [ %1, %14 ], [ %spec.select, %20 ]
  %24 = getelementptr inbounds nuw i8, ptr %.016, i64 8
  %25 = load ptr, ptr %24, align 8, !tbaa !18
  %26 = icmp eq ptr %25, null
  br i1 %26, label %31, label %27

27:                                               ; preds = %23
  %28 = getelementptr inbounds nuw i8, ptr %25, i64 192
  %29 = load ptr, ptr %28, align 8, !tbaa !34
  %30 = icmp eq ptr %29, null
  br i1 %30, label %31, label %32

31:                                               ; preds = %27, %23
  call void @ERR_new() #6
  call void @ERR_set_debug(ptr noundef nonnull @.str, i32 noundef 357, ptr noundef nonnull @__func__.PEM_write_bio_PrivateKey_traditional) #6
  call void (i32, i32, ptr, ...) @ERR_set_error(i32 noundef 9, i32 noundef 110, ptr noundef null) #6
  br label %.sink.split

32:                                               ; preds = %27
  %33 = getelementptr inbounds nuw i8, ptr %25, i64 16
  %34 = load ptr, ptr %33, align 8, !tbaa !35
  %35 = call i32 (ptr, i64, ptr, ...) @BIO_snprintf(ptr noundef nonnull %8, i64 noundef 80, ptr noundef nonnull @.str.3, ptr noundef %34) #6
  %36 = call i32 @PEM_ASN1_write_bio(ptr noundef nonnull @i2d_PrivateKey, ptr noundef nonnull %8, ptr noundef %0, ptr noundef nonnull %.016, ptr noundef %2, ptr noundef %3, i32 noundef %4, ptr noundef %5, ptr noundef %6) #6
  br label %.sink.split

.sink.split:                                      ; preds = %31, %32
  %.0.ph = phi i32 [ %36, %32 ], [ 0, %31 ]
  %37 = load ptr, ptr %9, align 8, !tbaa !3
  call void @EVP_PKEY_free(ptr noundef %37) #6
  br label %38

38:                                               ; preds = %.sink.split, %7
  %.0 = phi i32 [ 0, %7 ], [ %.0.ph, %.sink.split ]
  call void @llvm.lifetime.end.p0(i64 8, ptr nonnull %9) #6
  call void @llvm.lifetime.end.p0(i64 80, ptr nonnull %8) #6
  ret i32 %.0
}